target datalayout = "e-m:e-p270:32:32-p271:32:32-p272:64:64-i64:64-i128:128-f80:128-n8:16:32:64-S128"
target triple = "x86_64-pc-linux-gnu"

@.str = private unnamed_addr constant [119 x i8] c"generated/home/dtcxzyw/WorkSpace/Projects/compilers/llvm-opt-benchmark/bench/libquic/libquic/boringssl/crypto/bn/div.c\00", align 1

; Function Attrs: nounwind uwtable
define hidden i32 @BN_mod_lshift_quick(ptr noundef %0, ptr noundef %1, i32 noundef %2, ptr noundef %3) #0 {
  %5 = alloca i32, align 4
  %6 = alloca ptr, align 8
  %7 = alloca ptr, align 8
  %8 = alloca i32, align 4
  %9 = alloca ptr, align 8
  %10 = alloca i32, align 4
  %11 = alloca i32, align 4
  store ptr %0, ptr %6, align 8, !tbaa !6
  store ptr %1, ptr %7, align 8, !tbaa !6
  store i32 %2, ptr %8, align 4, !tbaa !13
  store ptr %3, ptr %9, align 8, !tbaa !6
  %12 = load ptr, ptr %6, align 8, !tbaa !6
  %13 = load ptr, ptr %7, align 8, !tbaa !6
  %14 = icmp ne ptr %12, %13
  br i1 %14, label %15, label %22

15:                                               ; preds = %4
  %16 = load ptr, ptr %6, align 8, !tbaa !6
  %17 = load ptr, ptr %7, align 8, !tbaa !6
  %18 = call ptr @BN_copy(ptr noundef %16, ptr noundef %17)
  %19 = icmp eq ptr %18, null
  br i1 %19, label %20, label %21

20:                                               ; preds = %15
  store i32 0, ptr %5, align 4
  br label %82

21:                                               ; preds = %15
  br label %22

22:                                               ; preds = %21, %4
  br label %23

23:                                               ; preds = %80, %22
  %24 = load i32, ptr %8, align 4, !tbaa !13
  %25 = icmp sgt i32 %24, 0
  br i1 %25, label %26, label %81

26:                                               ; preds = %23
  call void @llvm.lifetime.start.p0(i64 4, ptr %10) #4
  %27 = load ptr, ptr %9, align 8, !tbaa !6
  %28 = call i32 @BN_num_bits(ptr noundef %27)
  %29 = load ptr, ptr %6, align 8, !tbaa !6
  %30 = call i32 @BN_num_bits(ptr noundef %29)
  %31 = sub i32 %28, %30
  store i32 %31, ptr %10, align 4, !tbaa !13
  %32 = load i32, ptr %10, align 4, !tbaa !13
  %33 = icmp slt i32 %32, 0
  br i1 %33, label %34, label %35

34:                                               ; preds = %26
  call void @ERR_put_error(i32 noundef 3, i32 noundef 0, i32 noundef 107, ptr noundef @.str, i32 noundef 546)
  store i32 0, ptr %5, align 4
  store i32 1, ptr %11, align 4
  br label %78

35:                                               ; preds = %26
  %36 = load i32, ptr %10, align 4, !tbaa !13
  %37 = load i32, ptr %8, align 4, !tbaa !13
  %38 = icmp sgt i32 %36, %37
  br i1 %38, label %39, label %41

39:                                               ; preds = %35
  %40 = load i32, ptr %8, align 4, !tbaa !13
  store i32 %40, ptr %10, align 4, !tbaa !13
  br label %41

41:                                               ; preds = %39, %35
  %42 = load i32, ptr %10, align 4, !tbaa !13
  %43 = icmp ne i32 %42, 0
  br i1 %43, label %44, label %55

44:                                               ; preds = %41
  %45 = load ptr, ptr %6, align 8, !tbaa !6
  %46 = load ptr, ptr %6, align 8, !tbaa !6
  %47 = load i32, ptr %10, align 4, !tbaa !13
  %48 = call i32 @BN_lshift(ptr noundef %45, ptr noundef %46, i32 noundef %47)
  %49 = icmp ne i32 %48, 0
  br i1 %49, label %51, label %50

50:                                               ; preds = %44
  store i32 0, ptr %5, align 4
  store i32 1, ptr %11, align 4
  br label %78

51:                                               ; preds = %44
  %52 = load i32, ptr %10, align 4, !tbaa !13
  %53 = load i32, ptr %8, align 4, !tbaa !13
  %54 = sub nsw i32 %53, %52
  store i32 %54, ptr %8, align 4, !tbaa !13
  br label %64

55:                                               ; preds = %41
  %56 = load ptr, ptr %6, align 8, !tbaa !6
  %57 = load ptr, ptr %6, align 8, !tbaa !6
  %58 = call i32 @BN_lshift1(ptr noundef %56, ptr noundef %57)
  %59 = icmp ne i32 %58, 0
  br i1 %59, label %61, label %60

60:                                               ; preds = %55
  store i32 0, ptr %5, align 4
  store i32 1, ptr %11, align 4
  br label %78

61:                                               ; preds = %55
  %62 = load i32, ptr %8, align 4, !tbaa !13
  %63 = add nsw i32 %62, -1
  store i32 %63, ptr %8, align 4, !tbaa !13
  br label %64

64:                                               ; preds = %61, %51
  %65 = load ptr, ptr %6, align 8, !tbaa !6
  %66 = load ptr, ptr %9, align 8, !tbaa !6
  %67 = call i32 @BN_cmp(ptr noundef %65, ptr noundef %66)
  %68 = icmp sge i32 %67, 0
  br i1 %68, label %69, label %77

69:                                               ; preds = %64
  %70 = load ptr, ptr %6, align 8, !tbaa !6
  %71 = load ptr, ptr %6, align 8, !tbaa !6
  %72 = load ptr, ptr %9, align 8, !tbaa !6
  %73 = call i32 @BN_sub(ptr noundef %70, ptr noundef %71, ptr noundef %72)
  %74 = icmp ne i32 %73, 0
  br i1 %74, label %76, label %75

75:                                               ; preds = %69
  store i32 0, ptr %5, align 4
  store i32 1, ptr %11, align 4
  br label %78

76:                                               ; preds = %69
  br label %77

77:                                               ; preds = %76, %64
  store i32 0, ptr %11, align 4
  br label %78

78:                                               ; preds = %77, %75, %60, %50, %34
  call void @llvm.lifetime.end.p0(i64 4, ptr %10) #4
  %79 = load i32, ptr %11, align 4
  switch i32 %79, label %84 [
    i32 0, label %80
    i32 1, label %82
  ]

80:                                               ; preds = %78
  br label %23, !llvm.loop !31

81:                                               ; preds = %23
  store i32 1, ptr %5, align 4
  br label %82

82:                                               ; preds = %81, %78, %20
  %83 = load i32, ptr %5, align 4
  ret i32 %83

84:                                               ; preds = %78
  unreachable
}