; Function Attrs: nounwind uwtable
define hidden range(i32 0, 2) i32 @BN_mod_lshift_quick(ptr noundef %0, ptr noundef %1, i32 noundef %2, ptr noundef %3) local_unnamed_addr #0 {
  %.not = icmp eq ptr %0, %1
  br i1 %.not, label %8, label %5

5:                                                ; preds = %4
  %6 = tail call ptr @BN_copy(ptr noundef %0, ptr noundef %1) #6
  %7 = icmp eq ptr %6, null
  br i1 %7, label %.thread, label %8

8:                                                ; preds = %5, %4
  %9 = icmp sgt i32 %2, 0
  br i1 %9, label %.lr.ph, label %.thread

.lr.ph:                                           ; preds = %8, %29
  %.02841 = phi i32 [ %.230, %29 ], [ %2, %8 ]
  %10 = tail call i32 @BN_num_bits(ptr noundef %3) #6
  %11 = tail call i32 @BN_num_bits(ptr noundef %0) #6
  %12 = sub i32 %10, %11
  %13 = icmp slt i32 %12, 0
  br i1 %13, label %14, label %15

14:                                               ; preds = %.lr.ph
  tail call void @ERR_put_error(i32 noundef 3, i32 noundef 0, i32 noundef 107, ptr noundef nonnull @.str, i32 noundef 546) #6
  br label %.thread

15:                                               ; preds = %.lr.ph
  %spec.select = tail call i32 @llvm.umin.i32(i32 %12, i32 %.02841)
  %.not34 = icmp eq i32 %10, %11
  br i1 %.not34, label %20, label %16

16:                                               ; preds = %15
  %17 = tail call i32 @BN_lshift(ptr noundef %0, ptr noundef %0, i32 noundef %spec.select) #6
  %.not36 = icmp eq i32 %17, 0
  br i1 %.not36, label %.thread, label %18

18:                                               ; preds = %16
  %19 = sub nsw i32 %.02841, %spec.select
  br label %24

20:                                               ; preds = %15
  %21 = tail call i32 @BN_lshift1(ptr noundef %0, ptr noundef %0) #6
  %.not35 = icmp eq i32 %21, 0
  br i1 %.not35, label %.thread, label %22

22:                                               ; preds = %20
  %23 = add nsw i32 %.02841, -1
  br label %24

24:                                               ; preds = %22, %18
  %.230 = phi i32 [ %19, %18 ], [ %23, %22 ]
  %25 = tail call i32 @BN_cmp(ptr noundef %0, ptr noundef %3) #6
  %26 = icmp sgt i32 %25, -1
  br i1 %26, label %27, label %29

27:                                               ; preds = %24
  %28 = tail call i32 @BN_sub(ptr noundef %0, ptr noundef %0, ptr noundef %3) #6
  %.not37 = icmp eq i32 %28, 0
  br i1 %.not37, label %.thread, label %29

29:                                               ; preds = %24, %27
  %30 = icmp sgt i32 %.230, 0
  br i1 %30, label %.lr.ph, label %.thread

.thread:                                          ; preds = %29, %16, %20, %27, %8, %14, %5
  %.027 = phi i32 [ 0, %5 ], [ 0, %14 ], [ 1, %8 ], [ 1, %29 ], [ 0, %16 ], [ 0, %20 ], [ 0, %27 ]
  ret i32 %.027
}